target datalayout = "e-m:e-p270:32:32-p271:32:32-p272:64:64-i64:64-i128:128-f80:128-n8:16:32:64-S128"
target triple = "x86_64-pc-linux-gnu"

%struct.msghdr = type { ptr, i32, ptr, i64, ptr, i64, i32 }
%struct.cmsghdr = type { i64, i32, i32, [0 x i8] }
%struct.sctp_sndrcvinfo = type { i16, i16, i16, i32, i32, i32, i32, i32, i32 }
%struct.controlData = type { i32, i16, i8, i32 }

; Function Attrs: nounwind uwtable
define hidden void @getControlData(ptr noundef %0, ptr noundef %1) #0 {
  %3 = alloca ptr, align 8
  %4 = alloca ptr, align 8
  %5 = alloca ptr, align 8
  %6 = alloca ptr, align 8
  store ptr %0, ptr %3, align 8
  store ptr %1, ptr %4, align 8
  %7 = load ptr, ptr %3, align 8
  %8 = getelementptr inbounds %struct.msghdr, ptr %7, i32 0, i32 5
  %9 = load i64, ptr %8, align 8
  %10 = icmp uge i64 %9, 16
  br i1 %10, label %11, label %15

11:                                               ; preds = %2
  %12 = load ptr, ptr %3, align 8
  %13 = getelementptr inbounds %struct.msghdr, ptr %12, i32 0, i32 4
  %14 = load ptr, ptr %13, align 8
  br label %16

15:                                               ; preds = %2
  br label %16

16:                                               ; preds = %15, %11
  %17 = phi ptr [ %14, %11 ], [ null, %15 ]
  store ptr %17, ptr %5, align 8
  br label %18

18:                                               ; preds = %62, %16
  %19 = load ptr, ptr %5, align 8
  %20 = icmp ne ptr %19, null
  br i1 %20, label %21, label %66

21:                                               ; preds = %18
  %22 = load ptr, ptr %5, align 8
  %23 = getelementptr inbounds %struct.cmsghdr, ptr %22, i32 0, i32 1
  %24 = load i32, ptr %23, align 8
  %25 = icmp eq i32 %24, 132
  br i1 %25, label %26, label %61

26:                                               ; preds = %21
  %27 = load ptr, ptr %5, align 8
  %28 = getelementptr inbounds %struct.cmsghdr, ptr %27, i32 0, i32 2
  %29 = load i32, ptr %28, align 4
  %30 = icmp eq i32 %29, 1
  br i1 %30, label %31, label %61

31:                                               ; preds = %26
  %32 = load ptr, ptr %5, align 8
  %33 = getelementptr inbounds %struct.cmsghdr, ptr %32, i32 0, i32 3
  %34 = getelementptr inbounds [0 x i8], ptr %33, i64 0, i64 0
  store ptr %34, ptr %6, align 8
  %35 = load ptr, ptr %6, align 8
  %36 = getelementptr inbounds %struct.sctp_sndrcvinfo, ptr %35, i32 0, i32 8
  %37 = load i32, ptr %36, align 4
  %38 = load ptr, ptr %4, align 8
  %39 = getelementptr inbounds %struct.controlData, ptr %38, i32 0, i32 0
  store i32 %37, ptr %39, align 4
  %40 = load ptr, ptr %6, align 8
  %41 = getelementptr inbounds %struct.sctp_sndrcvinfo, ptr %40, i32 0, i32 0
  %42 = load i16, ptr %41, align 4
  %43 = load ptr, ptr %4, align 8
  %44 = getelementptr inbounds %struct.controlData, ptr %43, i32 0, i32 1
  store i16 %42, ptr %44, align 4
  %45 = load ptr, ptr %6, align 8
  %46 = getelementptr inbounds %struct.sctp_sndrcvinfo, ptr %45, i32 0, i32 2
  %47 = load i16, ptr %46, align 4
  %48 = zext i16 %47 to i32
  %49 = and i32 %48, 1
  %50 = icmp ne i32 %49, 0
  %51 = select i1 %50, i32 1, i32 0
  %52 = trunc i32 %51 to i8
  %53 = load ptr, ptr %4, align 8
  %54 = getelementptr inbounds %struct.controlData, ptr %53, i32 0, i32 2
  store i8 %52, ptr %54, align 2
  %55 = load ptr, ptr %6, align 8
  %56 = getelementptr inbounds %struct.sctp_sndrcvinfo, ptr %55, i32 0, i32 3
  %57 = load i32, ptr %56, align 4
  %58 = call i32 @ntohl(i32 noundef %57) #7
  %59 = load ptr, ptr %4, align 8
  %60 = getelementptr inbounds %struct.controlData, ptr %59, i32 0, i32 3
  store i32 %58, ptr %60, align 4
  br label %67

61:                                               ; preds = %26, %21
  br label %62

62:                                               ; preds = %61
  %63 = load ptr, ptr %3, align 8
  %64 = load ptr, ptr %5, align 8
  %65 = call ptr @__cmsg_nxthdr(ptr noundef %63, ptr noundef %64) #8
  store ptr %65, ptr %5, align 8
  br label %18, !llvm.loop !6

66:                                               ; preds = %18
  br label %67

67:                                               ; preds = %66, %31
  ret void
}