; Function Attrs: nounwind uwtable
define hidden void @getControlData(ptr noundef %0, ptr nocapture noundef writeonly %1) local_unnamed_addr #0 {
  %3 = getelementptr inbounds i8, ptr %0, i64 40
  %4 = load i64, ptr %3, align 8
  %5 = icmp ugt i64 %4, 15
  br i1 %5, label %6, label %.loopexit

6:                                                ; preds = %2
  %7 = getelementptr inbounds i8, ptr %0, i64 32
  %8 = load ptr, ptr %7, align 8
  %.not18 = icmp eq ptr %8, null
  br i1 %.not18, label %.loopexit, label %.lr.ph

.lr.ph:                                           ; preds = %6, %31
  %.019 = phi ptr [ %32, %31 ], [ %8, %6 ]
  %9 = getelementptr inbounds i8, ptr %.019, i64 8
  %10 = load i32, ptr %9, align 8
  %11 = icmp eq i32 %10, 132
  br i1 %11, label %12, label %31

12:                                               ; preds = %.lr.ph
  %13 = getelementptr inbounds i8, ptr %.019, i64 12
  %14 = load i32, ptr %13, align 4
  %15 = icmp eq i32 %14, 1
  br i1 %15, label %16, label %31

16:                                               ; preds = %12
  %17 = getelementptr inbounds i8, ptr %.019, i64 16
  %18 = getelementptr inbounds i8, ptr %.019, i64 44
  %19 = load i32, ptr %18, align 4
  store i32 %19, ptr %1, align 4
  %20 = load i16, ptr %17, align 4
  %21 = getelementptr inbounds i8, ptr %1, i64 4
  store i16 %20, ptr %21, align 4
  %22 = getelementptr inbounds i8, ptr %.019, i64 20
  %23 = load i16, ptr %22, align 4
  %24 = trunc i16 %23 to i8
  %25 = and i8 %24, 1
  %26 = getelementptr inbounds i8, ptr %1, i64 6
  store i8 %25, ptr %26, align 2
  %27 = getelementptr inbounds i8, ptr %.019, i64 24
  %28 = load i32, ptr %27, align 4
  %29 = tail call i32 @ntohl(i32 noundef %28) #12
  %30 = getelementptr inbounds i8, ptr %1, i64 8
  store i32 %29, ptr %30, align 4
  br label %.loopexit

31:                                               ; preds = %.lr.ph, %12
  %32 = tail call ptr @__cmsg_nxthdr(ptr noundef %0, ptr noundef nonnull %.019) #11
  %.not = icmp eq ptr %32, null
  br i1 %.not, label %.loopexit, label %.lr.ph, !llvm.loop !6

.loopexit:                                        ; preds = %31, %2, %6, %16
  ret void
}